
LedBlink.elf:     file format elf32-avr

Sections:
Idx Name          Size      VMA       LMA       File off  Algn
  0 .text         00000156  00000000  00000000  00000094  2**1
                  CONTENTS, ALLOC, LOAD, READONLY, CODE
  1 .data         00000030  00800060  00000156  000001ea  2**0
                  CONTENTS, ALLOC, LOAD, DATA
  2 .bss          00000001  00800090  00800090  0000021a  2**0
                  ALLOC
  3 .stab         00000c84  00000000  00000000  0000021c  2**2
                  CONTENTS, READONLY, DEBUGGING
  4 .stabstr      000008e7  00000000  00000000  00000ea0  2**0
                  CONTENTS, READONLY, DEBUGGING
  5 .comment      00000011  00000000  00000000  00001787  2**0
                  CONTENTS, READONLY

Disassembly of section .text:

00000000 <__vectors>:
   0:	12 c0       	rjmp	.+36     	; 0x26 <__ctors_end>
   2:	2a c0       	rjmp	.+84     	; 0x58 <__bad_interrupt>
   4:	29 c0       	rjmp	.+82     	; 0x58 <__bad_interrupt>
   6:	28 c0       	rjmp	.+80     	; 0x58 <__bad_interrupt>
   8:	27 c0       	rjmp	.+78     	; 0x58 <__bad_interrupt>
   a:	26 c0       	rjmp	.+76     	; 0x58 <__bad_interrupt>
   c:	25 c0       	rjmp	.+74     	; 0x58 <__bad_interrupt>
   e:	24 c0       	rjmp	.+72     	; 0x58 <__bad_interrupt>
  10:	23 c0       	rjmp	.+70     	; 0x58 <__bad_interrupt>
  12:	22 c0       	rjmp	.+68     	; 0x58 <__bad_interrupt>
  14:	21 c0       	rjmp	.+66     	; 0x58 <__bad_interrupt>
  16:	20 c0       	rjmp	.+64     	; 0x58 <__bad_interrupt>
  18:	1f c0       	rjmp	.+62     	; 0x58 <__bad_interrupt>
  1a:	1e c0       	rjmp	.+60     	; 0x58 <__bad_interrupt>
  1c:	1d c0       	rjmp	.+58     	; 0x58 <__bad_interrupt>
  1e:	1c c0       	rjmp	.+56     	; 0x58 <__bad_interrupt>
  20:	1b c0       	rjmp	.+54     	; 0x58 <__bad_interrupt>
  22:	1a c0       	rjmp	.+52     	; 0x58 <__bad_interrupt>
  24:	19 c0       	rjmp	.+50     	; 0x58 <__bad_interrupt>

00000026 <__ctors_end>:
  26:	11 24       	eor	r1, r1
  28:	1f be       	out	0x3f, r1	; 63
  2a:	cf ed       	ldi	r28, 0xDF	; 223
  2c:	cd bf       	out	0x3d, r28	; 61

0000002e <__do_copy_data>:
  2e:	10 e0       	ldi	r17, 0x00	; 0
  30:	a0 e6       	ldi	r26, 0x60	; 96
  32:	b0 e0       	ldi	r27, 0x00	; 0
  34:	e6 e5       	ldi	r30, 0x56	; 86
  36:	f1 e0       	ldi	r31, 0x01	; 1
  38:	02 c0       	rjmp	.+4      	; 0x3e <__SP_L__+0x1>
  3a:	05 90       	lpm	r0, Z+
  3c:	0d 92       	st	X+, r0
  3e:	a0 39       	cpi	r26, 0x90	; 144
  40:	b1 07       	cpc	r27, r17
  42:	d9 f7       	brne	.-10     	; 0x3a <__do_copy_data+0xc>

00000044 <__do_clear_bss>:
  44:	10 e0       	ldi	r17, 0x00	; 0
  46:	a0 e9       	ldi	r26, 0x90	; 144
  48:	b0 e0       	ldi	r27, 0x00	; 0
  4a:	01 c0       	rjmp	.+2      	; 0x4e <.do_clear_bss_start>

0000004c <.do_clear_bss_loop>:
  4c:	1d 92       	st	X+, r1

0000004e <.do_clear_bss_start>:
  4e:	a1 39       	cpi	r26, 0x91	; 145
  50:	b1 07       	cpc	r27, r17
  52:	e1 f7       	brne	.-8      	; 0x4c <.do_clear_bss_loop>
  54:	6e d0       	rcall	.+220    	; 0x132 <main>
  56:	7d c0       	rjmp	.+250    	; 0x152 <_exit>

00000058 <__bad_interrupt>:
  58:	d3 cf       	rjmp	.-90     	; 0x0 <__vectors>

0000005a <sleep>:
{ { INPUT, INPUT, OUTPUT, OUTPUT }, { LOW, LOW, HIGH, LOW } }, // CD 10
{ { INPUT, INPUT, OUTPUT, OUTPUT }, { LOW, LOW, LOW, HIGH } } // DC 11
};*/

void sleep(uint8_t millisec){
	while(millisec){
  5a:	07 c0       	rjmp	.+14     	; 0x6a <sleep+0x10>
	#else
		//round up by default
		__ticks_dc = (uint32_t)(ceil(fabs(__tmp)));
	#endif

	__builtin_avr_delay_cycles(__ticks_dc);
  5c:	e9 ef       	ldi	r30, 0xF9	; 249
  5e:	f0 e0       	ldi	r31, 0x00	; 0
  60:	31 97       	sbiw	r30, 0x01	; 1
  62:	f1 f7       	brne	.-4      	; 0x60 <sleep+0x6>
  64:	00 c0       	rjmp	.+0      	; 0x66 <sleep+0xc>
  66:	00 00       	nop
		_delay_ms(1);
		millisec--;
  68:	81 50       	subi	r24, 0x01	; 1
{ { INPUT, INPUT, OUTPUT, OUTPUT }, { LOW, LOW, HIGH, LOW } }, // CD 10
{ { INPUT, INPUT, OUTPUT, OUTPUT }, { LOW, LOW, LOW, HIGH } } // DC 11
};*/

void sleep(uint8_t millisec){
	while(millisec){
  6a:	81 11       	cpse	r24, r1
  6c:	f7 cf       	rjmp	.-18     	; 0x5c <sleep+0x2>
		_delay_ms(1);
		millisec--;
	}
}
  6e:	08 95       	ret

00000070 <debug>:

void debug(int zeroUm){

	int sleepTime;
	if(zeroUm==0){
  70:	89 2b       	or	r24, r25
  72:	19 f4       	brne	.+6      	; 0x7a <debug+0xa>
		sleepTime = 255;
  74:	cf ef       	ldi	r28, 0xFF	; 255
  76:	d0 e0       	ldi	r29, 0x00	; 0
  78:	02 c0       	rjmp	.+4      	; 0x7e <debug+0xe>
	}else{
		sleepTime = 75;
  7a:	cb e4       	ldi	r28, 0x4B	; 75
  7c:	d0 e0       	ldi	r29, 0x00	; 0
	}

	dirPort |=(1<<outPin2);
  7e:	8c 9a       	sbi	0x11, 4	; 17
	dirPort |=(1<<outPin3);
  80:	8d 9a       	sbi	0x11, 5	; 17

	while(1){
		//blink LED 0
		sleep(sleepTime);
  82:	8c 2f       	mov	r24, r28
  84:	ea df       	rcall	.-44     	; 0x5a <sleep>
		out2 = LOW;
  86:	94 98       	cbi	0x12, 4	; 18
		out3 = HIGH;
  88:	95 9a       	sbi	0x12, 5	; 18

		sleep(sleepTime);
  8a:	8c 2f       	mov	r24, r28
  8c:	e6 df       	rcall	.-52     	; 0x5a <sleep>
		out3 = LOW;
  8e:	95 98       	cbi	0x12, 5	; 18
		out2 = HIGH;
  90:	94 9a       	sbi	0x12, 4	; 18
  92:	f7 cf       	rjmp	.-18     	; 0x82 <debug+0x12>

00000094 <pinMode>:


void pinMode(int pin, int inOut){

	if(inOut==IN){
		dirPort &=~(1<<pin);//triz
  94:	91 b3       	in	r25, 0x11	; 17
  96:	21 e0       	ldi	r18, 0x01	; 1
  98:	30 e0       	ldi	r19, 0x00	; 0
  9a:	08 2e       	mov	r0, r24
  9c:	01 c0       	rjmp	.+2      	; 0xa0 <pinMode+0xc>
  9e:	22 0f       	add	r18, r18
  a0:	0a 94       	dec	r0
  a2:	ea f7       	brpl	.-6      	; 0x9e <pinMode+0xa>
}


void pinMode(int pin, int inOut){

	if(inOut==IN){
  a4:	67 2b       	or	r22, r23
  a6:	21 f4       	brne	.+8      	; 0xb0 <pinMode+0x1c>
		dirPort &=~(1<<pin);//triz
  a8:	20 95       	com	r18
  aa:	29 23       	and	r18, r25
  ac:	21 bb       	out	0x11, r18	; 17
  ae:	08 95       	ret
	}else{
		dirPort |=(1<<pin);
  b0:	92 2b       	or	r25, r18
  b2:	91 bb       	out	0x11, r25	; 17
  b4:	08 95       	ret

000000b6 <turnOn>:

	}
}


void turnOn( int led ) {
  b6:	cf 93       	push	r28
  b8:	df 93       	push	r29
	dirPort = 0xff;//apaga tudo antes de ligar algo. setar saidas todas com zero tbem?
  ba:	2f ef       	ldi	r18, 0xFF	; 255
  bc:	21 bb       	out	0x11, r18	; 17

pinMode( outPin0, matrix[led][PIN_CONFIG][0] );
  be:	ec 01       	movw	r28, r24
  c0:	84 e0       	ldi	r24, 0x04	; 4
  c2:	cc 0f       	add	r28, r28
  c4:	dd 1f       	adc	r29, r29
  c6:	8a 95       	dec	r24
  c8:	e1 f7       	brne	.-8      	; 0xc2 <turnOn+0xc>
  ca:	c0 5a       	subi	r28, 0xA0	; 160
  cc:	df 4f       	sbci	r29, 0xFF	; 255
  ce:	68 81       	ld	r22, Y
  d0:	79 81       	ldd	r23, Y+1	; 0x01
  d2:	82 e0       	ldi	r24, 0x02	; 2
  d4:	90 e0       	ldi	r25, 0x00	; 0
  d6:	de df       	rcall	.-68     	; 0x94 <pinMode>
pinMode( outPin1, matrix[led][PIN_CONFIG][1] );
  d8:	6a 81       	ldd	r22, Y+2	; 0x02
  da:	7b 81       	ldd	r23, Y+3	; 0x03
  dc:	83 e0       	ldi	r24, 0x03	; 3
  de:	90 e0       	ldi	r25, 0x00	; 0
  e0:	d9 df       	rcall	.-78     	; 0x94 <pinMode>
pinMode( outPin2, matrix[led][PIN_CONFIG][2] );
  e2:	6c 81       	ldd	r22, Y+4	; 0x04
  e4:	7d 81       	ldd	r23, Y+5	; 0x05
  e6:	84 e0       	ldi	r24, 0x04	; 4
  e8:	90 e0       	ldi	r25, 0x00	; 0
  ea:	d4 df       	rcall	.-88     	; 0x94 <pinMode>
pinMode( outPin3, matrix[led][PIN_CONFIG][3] );
  ec:	6e 81       	ldd	r22, Y+6	; 0x06
  ee:	7f 81       	ldd	r23, Y+7	; 0x07
  f0:	85 e0       	ldi	r24, 0x05	; 5
  f2:	90 e0       	ldi	r25, 0x00	; 0
  f4:	cf df       	rcall	.-98     	; 0x94 <pinMode>

	out0 = matrix[led][PIN_STATE][0] ;
  f6:	88 85       	ldd	r24, Y+8	; 0x08
  f8:	80 fd       	sbrc	r24, 0
  fa:	92 9a       	sbi	0x12, 2	; 18
  fc:	80 ff       	sbrs	r24, 0
  fe:	92 98       	cbi	0x12, 2	; 18
	out1 = matrix[led][PIN_STATE][1] ;
 100:	8a 85       	ldd	r24, Y+10	; 0x0a
 102:	80 fd       	sbrc	r24, 0
 104:	93 9a       	sbi	0x12, 3	; 18
 106:	80 ff       	sbrs	r24, 0
 108:	93 98       	cbi	0x12, 3	; 18
	out2 = matrix[led][PIN_STATE][2] ;
 10a:	8c 85       	ldd	r24, Y+12	; 0x0c
 10c:	80 fd       	sbrc	r24, 0
 10e:	94 9a       	sbi	0x12, 4	; 18
 110:	80 ff       	sbrs	r24, 0
 112:	94 98       	cbi	0x12, 4	; 18
	out3 = matrix[led][PIN_STATE][3] ;
 114:	8e 85       	ldd	r24, Y+14	; 0x0e
 116:	80 fd       	sbrc	r24, 0
 118:	95 9a       	sbi	0x12, 5	; 18
 11a:	80 ff       	sbrs	r24, 0
 11c:	95 98       	cbi	0x12, 5	; 18
}
 11e:	df 91       	pop	r29
 120:	cf 91       	pop	r28
 122:	08 95       	ret

00000124 <timer>:

void timer(void)
{
	TCCR1A = 0x00;                //Timer counter control register
 124:	1f bc       	out	0x2f, r1	; 47
	TCCR1B = (0 << WGM02)|(1 << CS02)|(0 << CS01)|(0 << CS00); // WGM=0, prescale at 8
 126:	84 e0       	ldi	r24, 0x04	; 4
 128:	8e bd       	out	0x2e, r24	; 46
	TIMSK |= (1 << TOIE1);         //Set bit 1 in TIMSK to enable Timer 1 overflow interrupt.
 12a:	89 b7       	in	r24, 0x39	; 57
 12c:	80 68       	ori	r24, 0x80	; 128
 12e:	89 bf       	out	0x39, r24	; 57
 130:	08 95       	ret

00000132 <main>:
	//dirPort |=(1<<outPin3);

while(1){

	//blink LED 0
	sleep(255);
 132:	8f ef       	ldi	r24, 0xFF	; 255
 134:	92 df       	rcall	.-220    	; 0x5a <sleep>
	turnOn(0);
 136:	80 e0       	ldi	r24, 0x00	; 0
 138:	90 e0       	ldi	r25, 0x00	; 0
 13a:	bd df       	rcall	.-134    	; 0xb6 <turnOn>

	sleep(255);
 13c:	8f ef       	ldi	r24, 0xFF	; 255
 13e:	8d df       	rcall	.-230    	; 0x5a <sleep>
	turnOn(1);
 140:	81 e0       	ldi	r24, 0x01	; 1
 142:	90 e0       	ldi	r25, 0x00	; 0
 144:	b8 df       	rcall	.-144    	; 0xb6 <turnOn>

	sleep(255);
 146:	8f ef       	ldi	r24, 0xFF	; 255
 148:	88 df       	rcall	.-240    	; 0x5a <sleep>
	turnOn(2);
 14a:	82 e0       	ldi	r24, 0x02	; 2
 14c:	90 e0       	ldi	r25, 0x00	; 0
 14e:	b3 df       	rcall	.-154    	; 0xb6 <turnOn>
 150:	f0 cf       	rjmp	.-32     	; 0x132 <main>

00000152 <_exit>:
 152:	f8 94       	cli

00000154 <__stop_program>:
 154:	ff cf       	rjmp	.-2      	; 0x154 <__stop_program>
